target datalayout = "e-m:e-p270:32:32-p271:32:32-p272:64:64-i64:64-i128:128-f80:128-n8:16:32:64-S128"
target triple = "x86_64-pc-linux-gnu"

%struct._object = type { %union.anon, ptr }
%union.anon = type { i64 }
%struct.PyBytesObject = type { %struct.PyVarObject, i64, [1 x i8] }
%struct.PyVarObject = type { %struct._object, i64 }
%struct.anon = type { i32, i32 }

@_Py_NoneStruct = external global %struct._object, align 8
@.str.52 = private unnamed_addr constant [2 x i8] c"O\00", align 1
@.str.70 = private unnamed_addr constant [11 x i8] c"O|i:dlopen\00", align 1
@.str.71 = private unnamed_addr constant [14 x i8] c"ctypes.dlopen\00", align 1
@PyExc_OSError = external global ptr, align 8
@.str.72 = private unnamed_addr constant [15 x i8] c"dlopen() error\00", align 1

; Function Attrs: alwaysinline nounwind uwtable
define internal i32 @_Py_IsImmortal(ptr noundef %0) #3 {
  %2 = alloca ptr, align 8
  store ptr %0, ptr %2, align 8, !tbaa !9
  %3 = load ptr, ptr %2, align 8, !tbaa !9
  %4 = getelementptr inbounds nuw %struct._object, ptr %3, i32 0, i32 0
  %5 = getelementptr inbounds nuw %struct.anon, ptr %4, i32 0, i32 0
  %6 = load i32, ptr %5, align 8, !tbaa !16
  %7 = icmp slt i32 %6, 0
  %8 = zext i1 %7 to i32
  ret i32 %8
}

; Function Attrs: alwaysinline nounwind uwtable
define internal void @Py_DECREF(ptr noundef %0) #3 {
  %2 = alloca ptr, align 8
  store ptr %0, ptr %2, align 8, !tbaa !9
  %3 = load ptr, ptr %2, align 8, !tbaa !9
  %4 = call i32 @_Py_IsImmortal(ptr noundef %3)
  %5 = icmp ne i32 %4, 0
  br i1 %5, label %6, label %7

6:                                                ; preds = %1
  br label %16

7:                                                ; preds = %1
  %8 = load ptr, ptr %2, align 8, !tbaa !9
  %9 = getelementptr inbounds nuw %struct._object, ptr %8, i32 0, i32 0
  %10 = getelementptr inbounds nuw %struct.anon, ptr %9, i32 0, i32 0
  %11 = load i32, ptr %10, align 8, !tbaa !16
  %12 = add i32 %11, -1
  store i32 %12, ptr %10, align 8, !tbaa !16
  %13 = icmp eq i32 %12, 0
  br i1 %13, label %14, label %16

14:                                               ; preds = %7
  %15 = load ptr, ptr %2, align 8, !tbaa !9
  call void @_Py_Dealloc(ptr noundef %15)
  br label %16

16:                                               ; preds = %6, %14, %7
  ret void
}

; Function Attrs: inlinehint nounwind uwtable
define internal void @Py_XDECREF(ptr noundef %0) #5 {
  %2 = alloca ptr, align 8
  store ptr %0, ptr %2, align 8, !tbaa !9
  %3 = load ptr, ptr %2, align 8, !tbaa !9
  %4 = icmp ne ptr %3, null
  br i1 %4, label %5, label %7

5:                                                ; preds = %1
  %6 = load ptr, ptr %2, align 8, !tbaa !9
  call void @Py_DECREF(ptr noundef %6)
  br label %7

7:                                                ; preds = %5, %1
  ret void
}

; Function Attrs: inlinehint nounwind uwtable
define internal ptr @PyBytes_AS_STRING(ptr noundef %0) #5 {
  %2 = alloca ptr, align 8
  store ptr %0, ptr %2, align 8, !tbaa !9
  %3 = load ptr, ptr %2, align 8, !tbaa !9
  %4 = getelementptr inbounds nuw %struct.PyBytesObject, ptr %3, i32 0, i32 2
  %5 = getelementptr inbounds [1 x i8], ptr %4, i64 0, i64 0
  ret ptr %5
}

; Function Attrs: nounwind uwtable
define internal ptr @py_dl_open(ptr noundef %0, ptr noundef %1) #0 {
  %3 = alloca ptr, align 8
  %4 = alloca ptr, align 8
  %5 = alloca ptr, align 8
  %6 = alloca ptr, align 8
  %7 = alloca ptr, align 8
  %8 = alloca ptr, align 8
  %9 = alloca ptr, align 8
  %10 = alloca i32, align 4
  %11 = alloca i32, align 4
  %12 = alloca ptr, align 8
  store ptr %0, ptr %4, align 8, !tbaa !9
  store ptr %1, ptr %5, align 8, !tbaa !9
  call void @llvm.lifetime.start.p0(i64 8, ptr %6) #10
  call void @llvm.lifetime.start.p0(i64 8, ptr %7) #10
  call void @llvm.lifetime.start.p0(i64 8, ptr %8) #10
  call void @llvm.lifetime.start.p0(i64 8, ptr %9) #10
  call void @llvm.lifetime.start.p0(i64 4, ptr %10) #10
  store i32 2, ptr %10, align 4, !tbaa !30
  %13 = load ptr, ptr %5, align 8, !tbaa !9
  %14 = call i32 (ptr, ptr, ...) @PyArg_ParseTuple(ptr noundef %13, ptr noundef @.str.70, ptr noundef %6, ptr noundef %10)
  %15 = icmp ne i32 %14, 0
  br i1 %15, label %17, label %16

16:                                               ; preds = %2
  store ptr null, ptr %3, align 8
  store i32 1, ptr %11, align 4
  br label %56

17:                                               ; preds = %2
  %18 = load i32, ptr %10, align 4, !tbaa !30
  %19 = or i32 %18, 2
  store i32 %19, ptr %10, align 4, !tbaa !30
  %20 = load ptr, ptr %6, align 8, !tbaa !9
  %21 = icmp ne ptr %20, @_Py_NoneStruct
  br i1 %21, label %22, label %30

22:                                               ; preds = %17
  %23 = load ptr, ptr %6, align 8, !tbaa !9
  %24 = call i32 @PyUnicode_FSConverter(ptr noundef %23, ptr noundef %7)
  %25 = icmp eq i32 %24, 0
  br i1 %25, label %26, label %27

26:                                               ; preds = %22
  store ptr null, ptr %3, align 8
  store i32 1, ptr %11, align 4
  br label %56

27:                                               ; preds = %22
  %28 = load ptr, ptr %7, align 8, !tbaa !9
  %29 = call ptr @PyBytes_AS_STRING(ptr noundef %28)
  store ptr %29, ptr %8, align 8, !tbaa !27
  br label %31

30:                                               ; preds = %17
  store ptr null, ptr %8, align 8, !tbaa !27
  store ptr null, ptr %7, align 8, !tbaa !9
  br label %31

31:                                               ; preds = %30, %27
  %32 = load ptr, ptr %6, align 8, !tbaa !9
  %33 = call i32 (ptr, ptr, ...) @PySys_Audit(ptr noundef @.str.71, ptr noundef @.str.52, ptr noundef %32)
  %34 = icmp slt i32 %33, 0
  br i1 %34, label %35, label %36

35:                                               ; preds = %31
  store ptr null, ptr %3, align 8
  store i32 1, ptr %11, align 4
  br label %56

36:                                               ; preds = %31
  %37 = load ptr, ptr %8, align 8, !tbaa !27
  %38 = load i32, ptr %10, align 4, !tbaa !30
  %39 = call ptr @dlopen(ptr noundef %37, i32 noundef %38) #10
  store ptr %39, ptr %9, align 8, !tbaa !3
  %40 = load ptr, ptr %7, align 8, !tbaa !9
  call void @Py_XDECREF(ptr noundef %40)
  %41 = load ptr, ptr %9, align 8, !tbaa !3
  %42 = icmp ne ptr %41, null
  br i1 %42, label %53, label %43

43:                                               ; preds = %36
  call void @llvm.lifetime.start.p0(i64 8, ptr %12) #10
  %44 = call ptr @dlerror() #10
  store ptr %44, ptr %12, align 8, !tbaa !27
  %45 = load ptr, ptr %12, align 8, !tbaa !27
  %46 = icmp ne ptr %45, null
  br i1 %46, label %47, label %50

47:                                               ; preds = %43
  %48 = load ptr, ptr @PyExc_OSError, align 8, !tbaa !9
  %49 = load ptr, ptr %12, align 8, !tbaa !27
  call void @_PyErr_SetLocaleString(ptr noundef %48, ptr noundef %49)
  store ptr null, ptr %3, align 8
  store i32 1, ptr %11, align 4
  br label %52

50:                                               ; preds = %43
  %51 = load ptr, ptr @PyExc_OSError, align 8, !tbaa !9
  call void @PyErr_SetString(ptr noundef %51, ptr noundef @.str.72)
  store ptr null, ptr %3, align 8
  store i32 1, ptr %11, align 4
  br label %52

52:                                               ; preds = %50, %47
  call void @llvm.lifetime.end.p0(i64 8, ptr %12) #10
  br label %56

53:                                               ; preds = %36
  %54 = load ptr, ptr %9, align 8, !tbaa !3
  %55 = call ptr @PyLong_FromVoidPtr(ptr noundef %54)
  store ptr %55, ptr %3, align 8
  store i32 1, ptr %11, align 4
  br label %56

56:                                               ; preds = %53, %52, %35, %26, %16
  call void @llvm.lifetime.end.p0(i64 4, ptr %10) #10
  call void @llvm.lifetime.end.p0(i64 8, ptr %9) #10
  call void @llvm.lifetime.end.p0(i64 8, ptr %8) #10
  call void @llvm.lifetime.end.p0(i64 8, ptr %7) #10
  call void @llvm.lifetime.end.p0(i64 8, ptr %6) #10
  %57 = load ptr, ptr %3, align 8
  ret ptr %57
}