; Function Attrs: nounwind uwtable
define internal ptr @py_dl_open(ptr readnone captures(none) %0, ptr noundef %1) #0 {
  %3 = alloca ptr, align 8
  %4 = alloca ptr, align 8
  %5 = alloca i32, align 4
  call void @llvm.lifetime.start.p0(i64 8, ptr nonnull %3) #10
  call void @llvm.lifetime.start.p0(i64 8, ptr nonnull %4) #10
  call void @llvm.lifetime.start.p0(i64 4, ptr nonnull %5) #10
  store i32 2, ptr %5, align 4, !tbaa !43
  %6 = call i32 (ptr, ptr, ...) @PyArg_ParseTuple(ptr noundef %1, ptr noundef nonnull @.str.70, ptr noundef nonnull %3, ptr noundef nonnull %5) #10
  %.not = icmp eq i32 %6, 0
  br i1 %.not, label %39, label %7

7:                                                ; preds = %2
  %8 = load i32, ptr %5, align 4, !tbaa !43
  %9 = or i32 %8, 2
  store i32 %9, ptr %5, align 4, !tbaa !43
  %10 = load ptr, ptr %3, align 8, !tbaa !3
  %.not11 = icmp eq ptr %10, @_Py_NoneStruct
  br i1 %.not11, label %17, label %11

11:                                               ; preds = %7
  %12 = call i32 @PyUnicode_FSConverter(ptr noundef %10, ptr noundef nonnull %4) #10
  %13 = icmp eq i32 %12, 0
  br i1 %13, label %39, label %14

14:                                               ; preds = %11
  %15 = load ptr, ptr %4, align 8, !tbaa !3
  %16 = getelementptr inbounds nuw i8, ptr %15, i64 32
  %.pre = load ptr, ptr %3, align 8, !tbaa !3
  br label %18

17:                                               ; preds = %7
  store ptr null, ptr %4, align 8, !tbaa !3
  br label %18

18:                                               ; preds = %17, %14
  %19 = phi ptr [ %.pre, %14 ], [ @_Py_NoneStruct, %17 ]
  %.07 = phi ptr [ %16, %14 ], [ null, %17 ]
  %20 = call i32 (ptr, ptr, ...) @PySys_Audit(ptr noundef nonnull @.str.71, ptr noundef nonnull @.str.52, ptr noundef %19) #10
  %21 = icmp slt i32 %20, 0
  br i1 %21, label %39, label %22

22:                                               ; preds = %18
  %23 = load i32, ptr %5, align 4, !tbaa !43
  %24 = call ptr @dlopen(ptr noundef %.07, i32 noundef %23) #10
  %25 = load ptr, ptr %4, align 8, !tbaa !3
  %.not.i = icmp eq ptr %25, null
  br i1 %.not.i, label %Py_XDECREF.exit, label %26

26:                                               ; preds = %22
  %27 = load i32, ptr %25, align 8, !tbaa !11
  %.not.i.i = icmp sgt i32 %27, -1
  br i1 %.not.i.i, label %28, label %Py_XDECREF.exit

28:                                               ; preds = %26
  %29 = add nsw i32 %27, -1
  store i32 %29, ptr %25, align 8, !tbaa !11
  %30 = icmp eq i32 %29, 0
  br i1 %30, label %31, label %Py_XDECREF.exit

31:                                               ; preds = %28
  call void @_Py_Dealloc(ptr noundef nonnull %25) #10
  br label %Py_XDECREF.exit

Py_XDECREF.exit:                                  ; preds = %22, %26, %28, %31
  %.not12 = icmp eq ptr %24, null
  br i1 %.not12, label %32, label %37

32:                                               ; preds = %Py_XDECREF.exit
  %33 = call ptr @dlerror() #10
  %.not13 = icmp eq ptr %33, null
  %34 = load ptr, ptr @PyExc_OSError, align 8, !tbaa !3
  br i1 %.not13, label %36, label %35

35:                                               ; preds = %32
  call void @_PyErr_SetLocaleString(ptr noundef %34, ptr noundef nonnull %33) #10
  br label %39

36:                                               ; preds = %32
  call void @PyErr_SetString(ptr noundef %34, ptr noundef nonnull @.str.72) #10
  br label %39

37:                                               ; preds = %Py_XDECREF.exit
  %38 = call ptr @PyLong_FromVoidPtr(ptr noundef nonnull %24) #10
  br label %39

39:                                               ; preds = %35, %36, %18, %11, %2, %37
  %.0 = phi ptr [ %38, %37 ], [ null, %2 ], [ null, %11 ], [ null, %18 ], [ null, %36 ], [ null, %35 ]
  call void @llvm.lifetime.end.p0(i64 4, ptr nonnull %5) #10
  call void @llvm.lifetime.end.p0(i64 8, ptr nonnull %4) #10
  call void @llvm.lifetime.end.p0(i64 8, ptr nonnull %3) #10
  ret ptr %.0
}